target datalayout = "e-m:e-p270:32:32-p271:32:32-p272:64:64-i64:64-i128:128-f80:128-n8:16:32:64-S128"
target triple = "x86_64-pc-linux-gnu"

@guess_remote = internal global i32 0, align 4
@use_relative_paths = internal global i32 0, align 4
@.str.178 = private unnamed_addr constant [21 x i8] c"worktree.guessremote\00", align 1
@.str.179 = private unnamed_addr constant [26 x i8] c"worktree.userelativepaths\00", align 1

; Function Attrs: nounwind uwtable
define internal i32 @git_worktree_config(ptr noundef %0, ptr noundef %1, ptr noundef %2, ptr noundef %3) #0 {
  %5 = alloca i32, align 4
  %6 = alloca ptr, align 8
  %7 = alloca ptr, align 8
  %8 = alloca ptr, align 8
  %9 = alloca ptr, align 8
  store ptr %0, ptr %6, align 8, !tbaa !11
  store ptr %1, ptr %7, align 8, !tbaa !11
  store ptr %2, ptr %8, align 8, !tbaa !73
  store ptr %3, ptr %9, align 8, !tbaa !15
  %10 = load ptr, ptr %6, align 8, !tbaa !11
  %11 = call i32 @strcmp(ptr noundef %10, ptr noundef @.str.178) #13
  %12 = icmp ne i32 %11, 0
  br i1 %12, label %17, label %13

13:                                               ; preds = %4
  %14 = load ptr, ptr %6, align 8, !tbaa !11
  %15 = load ptr, ptr %7, align 8, !tbaa !11
  %16 = call i32 @git_config_bool(ptr noundef %14, ptr noundef %15)
  store i32 %16, ptr @guess_remote, align 4, !tbaa !4
  store i32 0, ptr %5, align 4
  br label %32

17:                                               ; preds = %4
  %18 = load ptr, ptr %6, align 8, !tbaa !11
  %19 = call i32 @strcmp(ptr noundef %18, ptr noundef @.str.179) #13
  %20 = icmp ne i32 %19, 0
  br i1 %20, label %25, label %21

21:                                               ; preds = %17
  %22 = load ptr, ptr %6, align 8, !tbaa !11
  %23 = load ptr, ptr %7, align 8, !tbaa !11
  %24 = call i32 @git_config_bool(ptr noundef %22, ptr noundef %23)
  store i32 %24, ptr @use_relative_paths, align 4, !tbaa !4
  store i32 0, ptr %5, align 4
  br label %32

25:                                               ; preds = %17
  br label %26

26:                                               ; preds = %25
  %27 = load ptr, ptr %6, align 8, !tbaa !11
  %28 = load ptr, ptr %7, align 8, !tbaa !11
  %29 = load ptr, ptr %8, align 8, !tbaa !73
  %30 = load ptr, ptr %9, align 8, !tbaa !15
  %31 = call i32 @git_default_config(ptr noundef %27, ptr noundef %28, ptr noundef %29, ptr noundef %30)
  store i32 %31, ptr %5, align 4
  br label %32

32:                                               ; preds = %26, %21, %13
  %33 = load i32, ptr %5, align 4
  ret i32 %33
}