; Function Attrs: nounwind uwtable
define internal i32 @git_worktree_config(ptr noundef %0, ptr noundef %1, ptr noundef %2, ptr noundef %3) #0 {
  %5 = tail call i32 @strcmp(ptr noundef nonnull dereferenceable(1) %0, ptr noundef nonnull dereferenceable(21) @.str.178) #20
  %.not = icmp eq i32 %5, 0
  br i1 %.not, label %6, label %8

6:                                                ; preds = %4
  %7 = tail call i32 @git_config_bool(ptr noundef nonnull %0, ptr noundef %1) #18
  store i32 %7, ptr @guess_remote, align 4, !tbaa !38
  br label %14

8:                                                ; preds = %4
  %9 = tail call i32 @strcmp(ptr noundef nonnull dereferenceable(1) %0, ptr noundef nonnull dereferenceable(26) @.str.179) #20
  %.not10 = icmp eq i32 %9, 0
  br i1 %.not10, label %10, label %12

10:                                               ; preds = %8
  %11 = tail call i32 @git_config_bool(ptr noundef nonnull %0, ptr noundef %1) #18
  store i32 %11, ptr @use_relative_paths, align 4, !tbaa !38
  br label %14

12:                                               ; preds = %8
  %13 = tail call i32 @git_default_config(ptr noundef nonnull %0, ptr noundef %1, ptr noundef %2, ptr noundef %3) #18
  br label %14

14:                                               ; preds = %12, %10, %6
  %.0 = phi i32 [ %13, %12 ], [ 0, %10 ], [ 0, %6 ]
  ret i32 %.0
}